; Function Attrs: nounwind uwtable
define hidden i32 @SSL_CTX_set_tmp_ecdh(ptr noundef %ctx, ptr noundef %ec_key) local_unnamed_addr #1 {
entry:
  %nid = alloca i32, align 4
  %cmp = icmp eq ptr %ec_key, null
  br i1 %cmp, label %if.then, label %lor.lhs.false

lor.lhs.false:                                    ; preds = %entry
  %call = tail call ptr @EC_KEY_get0_group(ptr noundef nonnull %ec_key) #14
  %cmp1 = icmp eq ptr %call, null
  br i1 %cmp1, label %if.then, label %if.end

if.then:                                          ; preds = %lor.lhs.false, %entry
  tail call void @ERR_put_error(i32 noundef 16, i32 noundef 0, i32 noundef 67, ptr noundef nonnull @.str, i32 noundef 287) #14
  br label %return

if.end:                                           ; preds = %lor.lhs.false
  %call2 = tail call ptr @EC_KEY_get0_group(ptr noundef nonnull %ec_key) #14
  %call3 = tail call i32 @EC_GROUP_get_curve_name(ptr noundef %call2) #14
  store i32 %call3, ptr %nid, align 4
  %tlsext_ellipticcurvelist.i = getelementptr inbounds nuw i8, ptr %ctx, i64 584
  %tlsext_ellipticcurvelist_length.i = getelementptr inbounds nuw i8, ptr %ctx, i64 576
  %call.i = call i32 @tls1_set_curves(ptr noundef nonnull %tlsext_ellipticcurvelist.i, ptr noundef nonnull %tlsext_ellipticcurvelist_length.i, ptr noundef nonnull %nid, i64 noundef 1) #14
  br label %return

return:                                           ; preds = %if.end, %if.then
  %retval.0 = phi i32 [ 0, %if.then ], [ %call.i, %if.end ]
  ret i32 %retval.0
}